; Function Attrs: mustprogress nofree nounwind uwtable
define internal void @"_ZNSt17_Function_handlerIFvN10ODDLParser11LogSeverityERKNSt7__cxx1112basic_stringIcSt11char_traitsIcESaIcEEEEZNS0_13OpenDDLParser14StdLogCallbackEP8_IO_FILEE3$_0E9_M_invokeERKSt9_Any_dataOS1_S9_"(ptr noundef nonnull readonly align 8 captures(none) dereferenceable(16) %0, ptr noundef nonnull readonly align 4 captures(none) dereferenceable(4) %1, ptr noundef nonnull readonly align 8 captures(none) dereferenceable(32) %2) #10 align 2 {
  %.val = load ptr, ptr %0, align 8
  %.val4 = load ptr, ptr %2, align 8
  %.not.i.i.i.i = icmp eq ptr %.val, null
  br i1 %.not.i.i.i.i, label %"_ZSt10__invoke_rIvRZN10ODDLParser13OpenDDLParser14StdLogCallbackB5cxx11EP8_IO_FILEE3$_0JNS0_11LogSeverityERKNSt7__cxx1112basic_stringIcSt11char_traitsIcESaIcEEEEENSt9enable_ifIX16is_invocable_r_vIT_T0_DpT1_EESG_E4typeEOSH_DpOSI_.exit", label %4

4:                                                ; preds = %3
  %.val3 = load i32, ptr %1, align 4
  %5 = icmp ult i32 %.val3, 4
  br i1 %5, label %switch.lookup, label %7

switch.lookup:                                    ; preds = %4
  %6 = zext nneg i32 %.val3 to i64
  %switch.gep = getelementptr inbounds nuw [4 x ptr], ptr @"switch.table._ZNSt17_Function_handlerIFvN10ODDLParser11LogSeverityERKNSt7__cxx1112basic_stringIcSt11char_traitsIcESaIcEEEEZNS0_13OpenDDLParser14StdLogCallbackEP8_IO_FILEE3$_0E9_M_invokeERKSt9_Any_dataOS1_S9_", i64 0, i64 %6
  %switch.load = load ptr, ptr %switch.gep, align 8
  br label %7

7:                                                ; preds = %switch.lookup, %4
  %.0.i.i.i.i = phi ptr [ @.str, %4 ], [ %switch.load, %switch.lookup ]
  %8 = tail call i32 (ptr, ptr, ...) @fprintf(ptr noundef nonnull %.val, ptr noundef nonnull @.str.5, ptr noundef nonnull %.0.i.i.i.i, ptr noundef %.val4) #29
  br label %"_ZSt10__invoke_rIvRZN10ODDLParser13OpenDDLParser14StdLogCallbackB5cxx11EP8_IO_FILEE3$_0JNS0_11LogSeverityERKNSt7__cxx1112basic_stringIcSt11char_traitsIcESaIcEEEEENSt9enable_ifIX16is_invocable_r_vIT_T0_DpT1_EESG_E4typeEOSH_DpOSI_.exit"

"_ZSt10__invoke_rIvRZN10ODDLParser13OpenDDLParser14StdLogCallbackB5cxx11EP8_IO_FILEE3$_0JNS0_11LogSeverityERKNSt7__cxx1112basic_stringIcSt11char_traitsIcESaIcEEEEENSt9enable_ifIX16is_invocable_r_vIT_T0_DpT1_EESG_E4typeEOSH_DpOSI_.exit": ; preds = %3, %7
  ret void
}